target datalayout = "e-m:e-p270:32:32-p271:32:32-p272:64:64-i64:64-i128:128-f80:128-n8:16:32:64-S128"
target triple = "x86_64-pc-linux-gnu"

%struct.tm = type { i32, i32, i32, i32, i32, i32, i32, i32, i32, i64, ptr }

; Function Attrs: nounwind uwtable
define internal ptr @deconst(ptr noundef %0) #0 {
  %2 = alloca ptr, align 8
  store ptr %0, ptr %2, align 8, !tbaa !49
  %3 = load ptr, ptr %2, align 8, !tbaa !49
  %4 = ptrtoint ptr %3 to i64
  %5 = inttoptr i64 %4 to ptr
  ret ptr %5
}

; Function Attrs: nounwind uwtable
define internal i64 @time_from_tm(ptr noundef %0) #0 {
  %2 = alloca ptr, align 8
  store ptr %0, ptr %2, align 8, !tbaa !76
  %3 = load ptr, ptr %2, align 8, !tbaa !76
  %4 = call i64 @timegm(ptr noundef %3) #10
  ret i64 %4
}

; Function Attrs: nounwind uwtable
define internal i64 @xstrpisotime(ptr noundef %0, ptr noundef %1) #0 {
  %3 = alloca ptr, align 8
  %4 = alloca ptr, align 8
  %5 = alloca %struct.tm, align 8
  %6 = alloca i64, align 8
  store ptr %0, ptr %3, align 8, !tbaa !15
  store ptr %1, ptr %4, align 8, !tbaa !65
  call void @llvm.lifetime.start.p0(i64 56, ptr %5) #10
  call void @llvm.lifetime.start.p0(i64 8, ptr %6) #10
  store i64 -1, ptr %6, align 8, !tbaa !17
  call void @llvm.memset.p0.i64(ptr align 8 %5, i8 0, i64 56, i1 false)
  br label %7

7:                                                ; preds = %19, %2
  %8 = load ptr, ptr %3, align 8, !tbaa !15
  %9 = load i8, ptr %8, align 1, !tbaa !46
  %10 = sext i8 %9 to i32
  %11 = icmp eq i32 %10, 32
  br i1 %11, label %17, label %12

12:                                               ; preds = %7
  %13 = load ptr, ptr %3, align 8, !tbaa !15
  %14 = load i8, ptr %13, align 1, !tbaa !46
  %15 = sext i8 %14 to i32
  %16 = icmp eq i32 %15, 9
  br label %17

17:                                               ; preds = %12, %7
  %18 = phi i1 [ true, %7 ], [ %16, %12 ]
  br i1 %18, label %19, label %22

19:                                               ; preds = %17
  %20 = load ptr, ptr %3, align 8, !tbaa !15
  %21 = getelementptr inbounds nuw i8, ptr %20, i32 1
  store ptr %21, ptr %3, align 8, !tbaa !15
  br label %7, !llvm.loop !67

22:                                               ; preds = %17
  %23 = load ptr, ptr %3, align 8, !tbaa !15
  %24 = call i32 @strtoi_lim(ptr noundef %23, ptr noundef %3, i32 noundef 1583, i32 noundef 4095)
  %25 = getelementptr inbounds nuw %struct.tm, ptr %5, i32 0, i32 5
  store i32 %24, ptr %25, align 4, !tbaa !68
  %26 = icmp slt i32 %24, 0
  br i1 %26, label %33, label %27

27:                                               ; preds = %22
  %28 = load ptr, ptr %3, align 8, !tbaa !15
  %29 = getelementptr inbounds nuw i8, ptr %28, i32 1
  store ptr %29, ptr %3, align 8, !tbaa !15
  %30 = load i8, ptr %28, align 1, !tbaa !46
  %31 = sext i8 %30 to i32
  %32 = icmp ne i32 %31, 45
  br i1 %32, label %33, label %34

33:                                               ; preds = %27, %22
  br label %102

34:                                               ; preds = %27
  %35 = load ptr, ptr %3, align 8, !tbaa !15
  %36 = call i32 @strtoi_lim(ptr noundef %35, ptr noundef %3, i32 noundef 1, i32 noundef 12)
  %37 = getelementptr inbounds nuw %struct.tm, ptr %5, i32 0, i32 4
  store i32 %36, ptr %37, align 8, !tbaa !70
  %38 = icmp slt i32 %36, 0
  br i1 %38, label %45, label %39

39:                                               ; preds = %34
  %40 = load ptr, ptr %3, align 8, !tbaa !15
  %41 = getelementptr inbounds nuw i8, ptr %40, i32 1
  store ptr %41, ptr %3, align 8, !tbaa !15
  %42 = load i8, ptr %40, align 1, !tbaa !46
  %43 = sext i8 %42 to i32
  %44 = icmp ne i32 %43, 45
  br i1 %44, label %45, label %46

45:                                               ; preds = %39, %34
  br label %102

46:                                               ; preds = %39
  %47 = load ptr, ptr %3, align 8, !tbaa !15
  %48 = call i32 @strtoi_lim(ptr noundef %47, ptr noundef %3, i32 noundef 1, i32 noundef 31)
  %49 = getelementptr inbounds nuw %struct.tm, ptr %5, i32 0, i32 3
  store i32 %48, ptr %49, align 4, !tbaa !71
  %50 = icmp slt i32 %48, 0
  br i1 %50, label %57, label %51

51:                                               ; preds = %46
  %52 = load ptr, ptr %3, align 8, !tbaa !15
  %53 = getelementptr inbounds nuw i8, ptr %52, i32 1
  store ptr %53, ptr %3, align 8, !tbaa !15
  %54 = load i8, ptr %52, align 1, !tbaa !46
  %55 = sext i8 %54 to i32
  %56 = icmp ne i32 %55, 84
  br i1 %56, label %57, label %58

57:                                               ; preds = %51, %46
  br label %102

58:                                               ; preds = %51
  %59 = load ptr, ptr %3, align 8, !tbaa !15
  %60 = call i32 @strtoi_lim(ptr noundef %59, ptr noundef %3, i32 noundef 0, i32 noundef 23)
  %61 = getelementptr inbounds nuw %struct.tm, ptr %5, i32 0, i32 2
  store i32 %60, ptr %61, align 8, !tbaa !72
  %62 = icmp slt i32 %60, 0
  br i1 %62, label %69, label %63

63:                                               ; preds = %58
  %64 = load ptr, ptr %3, align 8, !tbaa !15
  %65 = getelementptr inbounds nuw i8, ptr %64, i32 1
  store ptr %65, ptr %3, align 8, !tbaa !15
  %66 = load i8, ptr %64, align 1, !tbaa !46
  %67 = sext i8 %66 to i32
  %68 = icmp ne i32 %67, 58
  br i1 %68, label %69, label %70

69:                                               ; preds = %63, %58
  br label %102

70:                                               ; preds = %63
  %71 = load ptr, ptr %3, align 8, !tbaa !15
  %72 = call i32 @strtoi_lim(ptr noundef %71, ptr noundef %3, i32 noundef 0, i32 noundef 59)
  %73 = getelementptr inbounds nuw %struct.tm, ptr %5, i32 0, i32 1
  store i32 %72, ptr %73, align 4, !tbaa !73
  %74 = icmp slt i32 %72, 0
  br i1 %74, label %81, label %75

75:                                               ; preds = %70
  %76 = load ptr, ptr %3, align 8, !tbaa !15
  %77 = getelementptr inbounds nuw i8, ptr %76, i32 1
  store ptr %77, ptr %3, align 8, !tbaa !15
  %78 = load i8, ptr %76, align 1, !tbaa !46
  %79 = sext i8 %78 to i32
  %80 = icmp ne i32 %79, 58
  br i1 %80, label %81, label %82

81:                                               ; preds = %75, %70
  br label %102

82:                                               ; preds = %75
  %83 = load ptr, ptr %3, align 8, !tbaa !15
  %84 = call i32 @strtoi_lim(ptr noundef %83, ptr noundef %3, i32 noundef 0, i32 noundef 60)
  %85 = getelementptr inbounds nuw %struct.tm, ptr %5, i32 0, i32 0
  store i32 %84, ptr %85, align 8, !tbaa !74
  %86 = icmp slt i32 %84, 0
  br i1 %86, label %93, label %87

87:                                               ; preds = %82
  %88 = load ptr, ptr %3, align 8, !tbaa !15
  %89 = getelementptr inbounds nuw i8, ptr %88, i32 1
  store ptr %89, ptr %3, align 8, !tbaa !15
  %90 = load i8, ptr %88, align 1, !tbaa !46
  %91 = sext i8 %90 to i32
  %92 = icmp ne i32 %91, 90
  br i1 %92, label %93, label %94

93:                                               ; preds = %87, %82
  br label %102

94:                                               ; preds = %87
  %95 = getelementptr inbounds nuw %struct.tm, ptr %5, i32 0, i32 5
  %96 = load i32, ptr %95, align 4, !tbaa !68
  %97 = sub nsw i32 %96, 1900
  store i32 %97, ptr %95, align 4, !tbaa !68
  %98 = getelementptr inbounds nuw %struct.tm, ptr %5, i32 0, i32 4
  %99 = load i32, ptr %98, align 8, !tbaa !70
  %100 = add nsw i32 %99, -1
  store i32 %100, ptr %98, align 8, !tbaa !70
  %101 = call i64 @time_from_tm(ptr noundef %5)
  store i64 %101, ptr %6, align 8, !tbaa !17
  br label %102

102:                                              ; preds = %94, %93, %81, %69, %57, %45, %33
  %103 = load ptr, ptr %4, align 8, !tbaa !65
  %104 = icmp ne ptr %103, null
  br i1 %104, label %105, label %109

105:                                              ; preds = %102
  %106 = load ptr, ptr %3, align 8, !tbaa !15
  %107 = call ptr @deconst(ptr noundef %106)
  %108 = load ptr, ptr %4, align 8, !tbaa !65
  store ptr %107, ptr %108, align 8, !tbaa !15
  br label %109

109:                                              ; preds = %105, %102
  %110 = load i64, ptr %6, align 8, !tbaa !17
  call void @llvm.lifetime.end.p0(i64 8, ptr %6) #10
  call void @llvm.lifetime.end.p0(i64 56, ptr %5) #10
  ret i64 %110
}