; Function Attrs: nounwind uwtable
define internal fastcc i64 @xstrpisotime(ptr noundef nonnull %0, ptr noundef nonnull writeonly captures(none) %1) unnamed_addr #0 {
  %3 = alloca ptr, align 8
  %4 = alloca %struct.tm, align 8
  call void @llvm.lifetime.start.p0(i64 56, ptr nonnull %4) #16
  call void @llvm.memset.p0.i64(ptr noundef nonnull align 8 dereferenceable(56) %4, i8 0, i64 56, i1 false)
  br label %5

5:                                                ; preds = %.critedge, %2
  %6 = phi ptr [ %9, %.critedge ], [ %0, %2 ]
  %7 = load i8, ptr %6, align 1, !tbaa !28
  switch i8 %7, label %.preheader47 [
    i8 32, label %.critedge
    i8 9, label %.critedge
  ]

.preheader47:                                     ; preds = %5
  %8 = add i8 %7, -48
  %or.cond26.i49 = icmp ult i8 %8, 10
  br i1 %or.cond26.i49, label %.lr.ph, label %strtoi_lim.exit

.critedge:                                        ; preds = %5, %5
  %9 = getelementptr inbounds nuw i8, ptr %6, i64 1
  br label %5, !llvm.loop !53

10:                                               ; preds = %.lr.ph
  %11 = udiv i32 %.030.i50, 10
  %12 = mul nsw i32 %18, 10
  %13 = load i8, ptr %19, align 1, !tbaa !28
  %14 = add i8 %13, -48
  %or.cond26.i = icmp ult i8 %14, 10
  br i1 %or.cond26.i, label %.lr.ph, label %strtoi_lim.exit, !llvm.loop !54

.lr.ph:                                           ; preds = %.preheader47, %10
  %15 = phi i8 [ %14, %10 ], [ %8, %.preheader47 ]
  %.02229.i51 = phi ptr [ %19, %10 ], [ %6, %.preheader47 ]
  %.030.i50 = phi i32 [ %11, %10 ], [ 4095, %.preheader47 ]
  %16 = phi i32 [ %12, %10 ], [ 0, %.preheader47 ]
  %17 = zext nneg i8 %15 to i32
  %18 = add nsw i32 %16, %17
  %19 = getelementptr inbounds nuw i8, ptr %.02229.i51, i64 1
  %20 = icmp slt i32 %18, 410
  %21 = add nsw i32 %.030.i50, -10
  %22 = icmp ult i32 %21, -19
  %or.cond.i = select i1 %20, i1 %22, i1 false
  br i1 %or.cond.i, label %10, label %strtoi_lim.exit, !llvm.loop !54

strtoi_lim.exit:                                  ; preds = %.lr.ph, %10, %.preheader47
  %.023.lcssa.i = phi i32 [ 0, %.preheader47 ], [ %18, %10 ], [ %18, %.lr.ph ]
  %.022.lcssa.i = phi ptr [ %6, %.preheader47 ], [ %19, %10 ], [ %19, %.lr.ph ]
  %23 = icmp eq ptr %.022.lcssa.i, %6
  %24 = add i32 %.023.lcssa.i, -4096
  %or.cond27.i = icmp ult i32 %24, -2513
  %spec.select.i = select i1 %or.cond27.i, i32 -2, i32 %.023.lcssa.i
  %.1.i = select i1 %23, i32 -1, i32 %spec.select.i
  %25 = getelementptr inbounds nuw i8, ptr %4, i64 20
  store i32 %.1.i, ptr %25, align 4, !tbaa !55
  %26 = icmp slt i32 %.1.i, 0
  br i1 %26, label %.thread, label %27

27:                                               ; preds = %strtoi_lim.exit
  %.ptr42 = getelementptr inbounds nuw i8, ptr %.022.lcssa.i, i64 1
  store ptr %.ptr42, ptr %3, align 8, !tbaa !32
  %28 = load i8, ptr %.022.lcssa.i, align 1, !tbaa !28
  %.not = icmp eq i8 %28, 45
  br i1 %.not, label %.preheader46, label %.thread

.preheader46:                                     ; preds = %27
  %29 = load i8, ptr %.ptr42, align 1, !tbaa !28
  %30 = add i8 %29, -48
  %or.cond26.i1257 = icmp ult i8 %30, 10
  br i1 %or.cond26.i1257, label %.lr.ph60, label %44

31:                                               ; preds = %.lr.ph60
  %32 = udiv i32 %.030.i958, 10
  %33 = mul nsw i32 %39, 10
  %.02229.i10.ptr = getelementptr inbounds nuw i8, ptr %.022.lcssa.i, i64 %.02229.i10.add
  %34 = load i8, ptr %.02229.i10.ptr, align 1, !tbaa !28
  %35 = add i8 %34, -48
  %or.cond26.i12 = icmp ult i8 %35, 10
  br i1 %or.cond26.i12, label %.lr.ph60, label %strtoi_lim.exit19.thread, !llvm.loop !54

.lr.ph60:                                         ; preds = %.preheader46, %31
  %36 = phi i8 [ %35, %31 ], [ %30, %.preheader46 ]
  %.02229.i10.idx59 = phi i64 [ %.02229.i10.add, %31 ], [ 1, %.preheader46 ]
  %.030.i958 = phi i32 [ %32, %31 ], [ 12, %.preheader46 ]
  %37 = phi i32 [ %33, %31 ], [ 0, %.preheader46 ]
  %38 = zext nneg i8 %36 to i32
  %39 = add nsw i32 %37, %38
  %.02229.i10.add = add nuw nsw i64 %.02229.i10.idx59, 1
  %40 = icmp slt i32 %39, 2
  %41 = add nsw i32 %.030.i958, -10
  %42 = icmp ult i32 %41, -19
  %or.cond.i18 = select i1 %40, i1 %42, i1 false
  br i1 %or.cond.i18, label %31, label %strtoi_lim.exit19.thread, !llvm.loop !54

strtoi_lim.exit19.thread:                         ; preds = %31, %.lr.ph60
  %.022.lcssa.i14.ptr94 = getelementptr inbounds nuw i8, ptr %.022.lcssa.i, i64 %.02229.i10.add
  %43 = add i32 %39, -13
  %or.cond27.i1595 = icmp ult i32 %43, -12
  br i1 %or.cond27.i1595, label %.thread, label %45

44:                                               ; preds = %.preheader46
  %.022.lcssa.i14.ptr = getelementptr inbounds nuw i8, ptr %.022.lcssa.i, i64 1
  br label %.thread

45:                                               ; preds = %strtoi_lim.exit19.thread
  %46 = getelementptr inbounds nuw i8, ptr %4, i64 16
  store i32 %39, ptr %46, align 8, !tbaa !57
  %.ptr43 = getelementptr inbounds nuw i8, ptr %.022.lcssa.i14.ptr94, i64 1
  store ptr %.ptr43, ptr %3, align 8, !tbaa !32
  %47 = load i8, ptr %.022.lcssa.i14.ptr94, align 1, !tbaa !28
  %.not4 = icmp eq i8 %47, 45
  br i1 %.not4, label %.preheader45, label %.thread

.preheader45:                                     ; preds = %45
  %48 = load i8, ptr %.ptr43, align 1, !tbaa !28
  %49 = add i8 %48, -48
  %or.cond26.i2367 = icmp ult i8 %49, 10
  br i1 %or.cond26.i2367, label %.lr.ph70, label %63

50:                                               ; preds = %.lr.ph70
  %51 = udiv i32 %.030.i2068, 10
  %52 = mul nsw i32 %58, 10
  %.02229.i21.ptr = getelementptr inbounds nuw i8, ptr %.022.lcssa.i14.ptr94, i64 %.02229.i21.add
  %53 = load i8, ptr %.02229.i21.ptr, align 1, !tbaa !28
  %54 = add i8 %53, -48
  %or.cond26.i23 = icmp ult i8 %54, 10
  br i1 %or.cond26.i23, label %.lr.ph70, label %strtoi_lim.exit30.thread, !llvm.loop !54

.lr.ph70:                                         ; preds = %.preheader45, %50
  %55 = phi i8 [ %54, %50 ], [ %49, %.preheader45 ]
  %.02229.i21.idx69 = phi i64 [ %.02229.i21.add, %50 ], [ 1, %.preheader45 ]
  %.030.i2068 = phi i32 [ %51, %50 ], [ 31, %.preheader45 ]
  %56 = phi i32 [ %52, %50 ], [ 0, %.preheader45 ]
  %57 = zext nneg i8 %55 to i32
  %58 = add nsw i32 %56, %57
  %.02229.i21.add = add nuw nsw i64 %.02229.i21.idx69, 1
  %59 = icmp slt i32 %58, 4
  %60 = add nsw i32 %.030.i2068, -10
  %61 = icmp ult i32 %60, -19
  %or.cond.i29 = select i1 %59, i1 %61, i1 false
  br i1 %or.cond.i29, label %50, label %strtoi_lim.exit30.thread, !llvm.loop !54

strtoi_lim.exit30.thread:                         ; preds = %50, %.lr.ph70
  %.022.lcssa.i25.ptr102 = getelementptr inbounds nuw i8, ptr %.022.lcssa.i14.ptr94, i64 %.02229.i21.add
  %62 = add i32 %58, -32
  %or.cond27.i26103 = icmp ult i32 %62, -31
  br i1 %or.cond27.i26103, label %.thread, label %64

63:                                               ; preds = %.preheader45
  %.022.lcssa.i25.ptr = getelementptr inbounds nuw i8, ptr %.022.lcssa.i14.ptr94, i64 1
  br label %.thread

64:                                               ; preds = %strtoi_lim.exit30.thread
  %65 = getelementptr inbounds nuw i8, ptr %4, i64 12
  store i32 %58, ptr %65, align 4, !tbaa !58
  %.ptr44 = getelementptr inbounds nuw i8, ptr %.022.lcssa.i25.ptr102, i64 1
  store ptr %.ptr44, ptr %3, align 8, !tbaa !32
  %66 = load i8, ptr %.022.lcssa.i25.ptr102, align 1, !tbaa !28
  %.not5 = icmp eq i8 %66, 84
  br i1 %.not5, label %.preheader, label %.thread

.preheader:                                       ; preds = %64
  %67 = load i8, ptr %.ptr44, align 1, !tbaa !28
  %68 = add i8 %67, -48
  %or.cond26.i3477 = icmp ult i8 %68, 10
  br i1 %or.cond26.i3477, label %.lr.ph80, label %.thread119

.thread119:                                       ; preds = %.preheader
  %.022.lcssa.i36.ptr114 = getelementptr inbounds nuw i8, ptr %.022.lcssa.i25.ptr102, i64 1
  br label %.thread

69:                                               ; preds = %.lr.ph80
  %70 = udiv i32 %.030.i3178, 10
  %71 = mul nsw i32 %.fr, 10
  %.02229.i32.ptr = getelementptr inbounds nuw i8, ptr %.022.lcssa.i25.ptr102, i64 %.02229.i32.add
  %72 = load i8, ptr %.02229.i32.ptr, align 1, !tbaa !28
  %73 = add i8 %72, -48
  %or.cond26.i34 = icmp ult i8 %73, 10
  br i1 %or.cond26.i34, label %.lr.ph80, label %strtoi_lim.exit41, !llvm.loop !54

.lr.ph80:                                         ; preds = %.preheader, %69
  %74 = phi i8 [ %73, %69 ], [ %68, %.preheader ]
  %.02229.i32.idx79 = phi i64 [ %.02229.i32.add, %69 ], [ 1, %.preheader ]
  %.030.i3178 = phi i32 [ %70, %69 ], [ 23, %.preheader ]
  %75 = phi i32 [ %71, %69 ], [ 0, %.preheader ]
  %76 = zext nneg i8 %74 to i32
  %77 = add nsw i32 %75, %76
  %.fr = freeze i32 %77
  %.02229.i32.add = add nuw nsw i64 %.02229.i32.idx79, 1
  %78 = icmp slt i32 %.fr, 3
  %79 = add nsw i32 %.030.i3178, -10
  %80 = icmp ult i32 %79, -19
  %or.cond.i40 = select i1 %78, i1 %80, i1 false
  br i1 %or.cond.i40, label %69, label %strtoi_lim.exit41, !llvm.loop !54

strtoi_lim.exit41:                                ; preds = %.lr.ph80, %69
  %.022.lcssa.i36.ptr = getelementptr inbounds nuw i8, ptr %.022.lcssa.i25.ptr102, i64 %.02229.i32.add
  %or.cond27.i37 = icmp ugt i32 %.fr, 23
  br i1 %or.cond27.i37, label %.thread, label %81

81:                                               ; preds = %strtoi_lim.exit41
  %82 = getelementptr inbounds nuw i8, ptr %4, i64 8
  store i32 %.fr, ptr %82, align 8, !tbaa !59
  %83 = getelementptr inbounds nuw i8, ptr %.022.lcssa.i36.ptr, i64 1
  store ptr %83, ptr %3, align 8, !tbaa !32
  %84 = load i8, ptr %.022.lcssa.i36.ptr, align 1, !tbaa !28
  %.not6 = icmp eq i8 %84, 58
  br i1 %.not6, label %85, label %.thread

85:                                               ; preds = %81
  %86 = call fastcc i32 @strtoi_lim(ptr noundef nonnull %83, ptr noundef %3, i32 noundef 0, i32 noundef 59)
  %87 = getelementptr inbounds nuw i8, ptr %4, i64 4
  store i32 %86, ptr %87, align 4, !tbaa !60
  %88 = icmp slt i32 %86, 0
  %.pre = load ptr, ptr %3, align 8, !tbaa !32
  br i1 %88, label %.thread, label %89

89:                                               ; preds = %85
  %90 = getelementptr inbounds nuw i8, ptr %.pre, i64 1
  store ptr %90, ptr %3, align 8, !tbaa !32
  %91 = load i8, ptr %.pre, align 1, !tbaa !28
  %.not7 = icmp eq i8 %91, 58
  br i1 %.not7, label %92, label %.thread

92:                                               ; preds = %89
  %93 = call fastcc i32 @strtoi_lim(ptr noundef nonnull %90, ptr noundef %3, i32 noundef 0, i32 noundef 60)
  store i32 %93, ptr %4, align 8, !tbaa !61
  %94 = icmp slt i32 %93, 0
  %.pre91 = load ptr, ptr %3, align 8, !tbaa !32
  br i1 %94, label %.thread, label %95

95:                                               ; preds = %92
  %96 = getelementptr inbounds nuw i8, ptr %.pre91, i64 1
  %97 = load i8, ptr %.pre91, align 1, !tbaa !28
  %.not8 = icmp eq i8 %97, 90
  br i1 %.not8, label %98, label %.thread

98:                                               ; preds = %95
  %99 = load i32, ptr %25, align 4, !tbaa !55
  %100 = add nsw i32 %99, -1900
  store i32 %100, ptr %25, align 4, !tbaa !55
  %101 = load i32, ptr %46, align 8, !tbaa !57
  %102 = add nsw i32 %101, -1
  store i32 %102, ptr %46, align 8, !tbaa !57
  %103 = call i64 @timegm(ptr noundef nonnull %4) #16
  br label %.thread

.thread:                                          ; preds = %strtoi_lim.exit41, %.thread119, %strtoi_lim.exit30.thread, %63, %strtoi_lim.exit19.thread, %44, %98, %27, %strtoi_lim.exit, %45, %64, %81, %89, %85, %95, %92
  %104 = phi ptr [ %.022.lcssa.i, %strtoi_lim.exit ], [ %.ptr42, %27 ], [ %.ptr43, %45 ], [ %.ptr44, %64 ], [ %83, %81 ], [ %.pre, %85 ], [ %90, %89 ], [ %.pre91, %92 ], [ %96, %95 ], [ %96, %98 ], [ %.022.lcssa.i14.ptr, %44 ], [ %.022.lcssa.i14.ptr94, %strtoi_lim.exit19.thread ], [ %.022.lcssa.i25.ptr, %63 ], [ %.022.lcssa.i25.ptr102, %strtoi_lim.exit30.thread ], [ %.022.lcssa.i36.ptr114, %.thread119 ], [ %.022.lcssa.i36.ptr, %strtoi_lim.exit41 ]
  %.0 = phi i64 [ -1, %strtoi_lim.exit ], [ -1, %27 ], [ -1, %45 ], [ -1, %64 ], [ -1, %81 ], [ -1, %85 ], [ -1, %89 ], [ -1, %92 ], [ -1, %95 ], [ %103, %98 ], [ -1, %44 ], [ -1, %strtoi_lim.exit19.thread ], [ -1, %63 ], [ -1, %strtoi_lim.exit30.thread ], [ -1, %.thread119 ], [ -1, %strtoi_lim.exit41 ]
  store ptr %104, ptr %1, align 8, !tbaa !32
  call void @llvm.lifetime.end.p0(i64 56, ptr nonnull %4) #16
  ret i64 %.0
}